target datalayout = "e-m:e-p270:32:32-p271:32:32-p272:64:64-i64:64-i128:128-f80:128-n8:16:32:64-S128"
target triple = "x86_64-pc-linux-gnu"

%struct.Exnode_s = type { i64, i64, i8, %union.anon.0, %union.Exdata_u }
%union.anon.0 = type { ptr }
%union.Exdata_u = type { %struct.anon.3 }
%struct.anon.3 = type { ptr, ptr, ptr, ptr }
%struct.anon = type { %union.EX_STYPE, ptr }
%union.EX_STYPE = type { ptr }
%struct.Agobj_s = type { %struct.Agtag_s, ptr }
%struct.Agtag_s = type { i32, i64 }

@.str.12 = private unnamed_addr constant [47 x i8] c"Integer value %lld not legal for type tvtype_t\00", align 1

; Function Attrs: nounwind uwtable
define internal i32 @isedge(ptr noundef %0) #0 {
  %2 = alloca ptr, align 8
  store ptr %0, ptr %2, align 8, !tbaa !98
  %3 = load ptr, ptr %2, align 8, !tbaa !98
  %4 = getelementptr inbounds nuw %struct.Agobj_s, ptr %3, i32 0, i32 0
  %5 = load i32, ptr %4, align 8
  %6 = and i32 %5, 3
  %7 = icmp eq i32 %6, 2
  br i1 %7, label %14, label %8

8:                                                ; preds = %1
  %9 = load ptr, ptr %2, align 8, !tbaa !98
  %10 = getelementptr inbounds nuw %struct.Agobj_s, ptr %9, i32 0, i32 0
  %11 = load i32, ptr %10, align 8
  %12 = and i32 %11, 3
  %13 = icmp eq i32 %12, 3
  br label %14

14:                                               ; preds = %8, %1
  %15 = phi i1 [ true, %1 ], [ %13, %8 ]
  %16 = zext i1 %15 to i32
  ret i32 %16
}

; Function Attrs: nounwind uwtable
define internal ptr @int2ptr(i64 noundef %0) #0 {
  %2 = alloca i64, align 8
  store i64 %0, ptr %2, align 8, !tbaa !99
  %3 = load i64, ptr %2, align 8, !tbaa !99
  %4 = inttoptr i64 %3 to ptr
  ret ptr %4
}

; Function Attrs: nounwind uwtable
define internal i32 @convert(ptr noundef %0, i64 noundef %1, i32 noundef %2) #0 {
  %4 = alloca i32, align 4
  %5 = alloca ptr, align 8
  %6 = alloca i64, align 8
  %7 = alloca i32, align 4
  %8 = alloca ptr, align 8
  %9 = alloca i32, align 4
  %10 = alloca i32, align 4
  %11 = alloca ptr, align 8
  store ptr %0, ptr %5, align 8, !tbaa !75
  store i64 %1, ptr %6, align 8, !tbaa !34
  store i32 %2, ptr %7, align 4, !tbaa !26
  call void @llvm.lifetime.start.p0(i64 8, ptr %8) #16
  call void @llvm.lifetime.start.p0(i64 4, ptr %9) #16
  store i32 -1, ptr %9, align 4, !tbaa !26
  %12 = load i64, ptr %6, align 8, !tbaa !34
  %13 = icmp sgt i64 %12, 258
  br i1 %13, label %14, label %20

14:                                               ; preds = %3
  %15 = load ptr, ptr %5, align 8, !tbaa !75
  %16 = getelementptr inbounds nuw %struct.Exnode_s, ptr %15, i32 0, i32 0
  %17 = load i64, ptr %16, align 8, !tbaa !95
  %18 = icmp sgt i64 %17, 258
  br i1 %18, label %19, label %20

19:                                               ; preds = %14
  store i32 -1, ptr %4, align 4
  store i32 1, ptr %10, align 4
  br label %204

20:                                               ; preds = %14, %3
  %21 = load i64, ptr %6, align 8, !tbaa !34
  %22 = icmp eq i64 %21, 30
  br i1 %22, label %23, label %29

23:                                               ; preds = %20
  %24 = load ptr, ptr %5, align 8, !tbaa !75
  %25 = getelementptr inbounds nuw %struct.Exnode_s, ptr %24, i32 0, i32 0
  %26 = load i64, ptr %25, align 8, !tbaa !95
  %27 = icmp sle i64 %26, 30
  br i1 %27, label %28, label %29

28:                                               ; preds = %23
  store i32 0, ptr %9, align 4, !tbaa !26
  br label %192

29:                                               ; preds = %23, %20
  %30 = load i64, ptr %6, align 8, !tbaa !34
  %31 = icmp sle i64 %30, 30
  br i1 %31, label %32, label %45

32:                                               ; preds = %29
  %33 = load ptr, ptr %5, align 8, !tbaa !75
  %34 = getelementptr inbounds nuw %struct.Exnode_s, ptr %33, i32 0, i32 0
  %35 = load i64, ptr %34, align 8, !tbaa !95
  %36 = icmp eq i64 %35, 259
  br i1 %36, label %37, label %45

37:                                               ; preds = %32
  %38 = load ptr, ptr %5, align 8, !tbaa !75
  %39 = getelementptr inbounds nuw %struct.Exnode_s, ptr %38, i32 0, i32 4
  %40 = getelementptr inbounds nuw %struct.anon, ptr %39, i32 0, i32 0
  %41 = load i64, ptr %40, align 8, !tbaa !97
  %42 = icmp eq i64 %41, 0
  br i1 %42, label %43, label %44

43:                                               ; preds = %37
  store i32 0, ptr %9, align 4, !tbaa !26
  br label %44

44:                                               ; preds = %43, %37
  br label %191

45:                                               ; preds = %32, %29
  %46 = load i64, ptr %6, align 8, !tbaa !34
  %47 = icmp eq i64 %46, 259
  br i1 %47, label %48, label %49

48:                                               ; preds = %45
  store i32 0, ptr %9, align 4, !tbaa !26
  br label %190

49:                                               ; preds = %45
  %50 = load ptr, ptr %5, align 8, !tbaa !75
  %51 = getelementptr inbounds nuw %struct.Exnode_s, ptr %50, i32 0, i32 0
  %52 = load i64, ptr %51, align 8, !tbaa !95
  %53 = icmp eq i64 %52, 30
  br i1 %53, label %54, label %105

54:                                               ; preds = %49
  %55 = load i32, ptr %7, align 4, !tbaa !26
  %56 = icmp ne i32 %55, 0
  br i1 %56, label %57, label %65

57:                                               ; preds = %54
  %58 = load i64, ptr %6, align 8, !tbaa !34
  %59 = icmp ne i64 %58, 262
  br i1 %59, label %60, label %64

60:                                               ; preds = %57
  %61 = load i64, ptr %6, align 8, !tbaa !34
  %62 = icmp sle i64 %61, 30
  br i1 %62, label %63, label %64

63:                                               ; preds = %60
  store i32 0, ptr %9, align 4, !tbaa !26
  br label %64

64:                                               ; preds = %63, %60, %57
  br label %104

65:                                               ; preds = %54
  %66 = load ptr, ptr %5, align 8, !tbaa !75
  %67 = getelementptr inbounds nuw %struct.Exnode_s, ptr %66, i32 0, i32 4
  %68 = getelementptr inbounds nuw %struct.anon, ptr %67, i32 0, i32 0
  %69 = load i64, ptr %68, align 8, !tbaa !97
  %70 = call ptr @int2ptr(i64 noundef %69)
  store ptr %70, ptr %8, align 8, !tbaa !98
  %71 = load i64, ptr %6, align 8, !tbaa !34
  switch i64 %71, label %103 [
    i64 29, label %72
    i64 27, label %83
    i64 28, label %94
  ]

72:                                               ; preds = %65
  %73 = load ptr, ptr %8, align 8, !tbaa !98
  %74 = icmp ne ptr %73, null
  br i1 %74, label %75, label %81

75:                                               ; preds = %72
  %76 = load ptr, ptr %8, align 8, !tbaa !98
  %77 = getelementptr inbounds nuw %struct.Agobj_s, ptr %76, i32 0, i32 0
  %78 = load i32, ptr %77, align 8
  %79 = and i32 %78, 3
  %80 = icmp eq i32 %79, 0
  br i1 %80, label %81, label %82

81:                                               ; preds = %75, %72
  store i32 0, ptr %9, align 4, !tbaa !26
  br label %82

82:                                               ; preds = %81, %75
  br label %103

83:                                               ; preds = %65
  %84 = load ptr, ptr %8, align 8, !tbaa !98
  %85 = icmp ne ptr %84, null
  br i1 %85, label %86, label %92

86:                                               ; preds = %83
  %87 = load ptr, ptr %8, align 8, !tbaa !98
  %88 = getelementptr inbounds nuw %struct.Agobj_s, ptr %87, i32 0, i32 0
  %89 = load i32, ptr %88, align 8
  %90 = and i32 %89, 3
  %91 = icmp eq i32 %90, 1
  br i1 %91, label %92, label %93

92:                                               ; preds = %86, %83
  store i32 0, ptr %9, align 4, !tbaa !26
  br label %93

93:                                               ; preds = %92, %86
  br label %103

94:                                               ; preds = %65
  %95 = load ptr, ptr %8, align 8, !tbaa !98
  %96 = icmp ne ptr %95, null
  br i1 %96, label %97, label %101

97:                                               ; preds = %94
  %98 = load ptr, ptr %8, align 8, !tbaa !98
  %99 = call i32 @isedge(ptr noundef %98)
  %100 = icmp ne i32 %99, 0
  br i1 %100, label %101, label %102

101:                                              ; preds = %97, %94
  store i32 0, ptr %9, align 4, !tbaa !26
  br label %102

102:                                              ; preds = %101, %97
  br label %103

103:                                              ; preds = %65, %102, %93, %82
  br label %104

104:                                              ; preds = %103, %64
  br label %189

105:                                              ; preds = %49
  %106 = load i64, ptr %6, align 8, !tbaa !34
  %107 = icmp eq i64 %106, 263
  br i1 %107, label %108, label %127

108:                                              ; preds = %105
  %109 = load ptr, ptr %5, align 8, !tbaa !75
  %110 = getelementptr inbounds nuw %struct.Exnode_s, ptr %109, i32 0, i32 0
  %111 = load i64, ptr %110, align 8, !tbaa !95
  %112 = icmp eq i64 %111, 31
  br i1 %112, label %113, label %126

113:                                              ; preds = %108
  store i32 0, ptr %9, align 4, !tbaa !26
  %114 = load i32, ptr %7, align 4, !tbaa !26
  %115 = icmp ne i32 %114, 0
  br i1 %115, label %125, label %116

116:                                              ; preds = %113
  %117 = load ptr, ptr %5, align 8, !tbaa !75
  %118 = getelementptr inbounds nuw %struct.Exnode_s, ptr %117, i32 0, i32 4
  %119 = getelementptr inbounds nuw %struct.anon, ptr %118, i32 0, i32 0
  %120 = load i64, ptr %119, align 8, !tbaa !97
  %121 = call ptr @tvtypeToStr(i64 noundef %120)
  %122 = load ptr, ptr %5, align 8, !tbaa !75
  %123 = getelementptr inbounds nuw %struct.Exnode_s, ptr %122, i32 0, i32 4
  %124 = getelementptr inbounds nuw %struct.anon, ptr %123, i32 0, i32 0
  store ptr %121, ptr %124, align 8, !tbaa !97
  br label %125

125:                                              ; preds = %116, %113
  br label %126

126:                                              ; preds = %125, %108
  br label %188

127:                                              ; preds = %105
  %128 = load i64, ptr %6, align 8, !tbaa !34
  %129 = icmp eq i64 %128, 31
  br i1 %129, label %130, label %153

130:                                              ; preds = %127
  %131 = load ptr, ptr %5, align 8, !tbaa !75
  %132 = getelementptr inbounds nuw %struct.Exnode_s, ptr %131, i32 0, i32 0
  %133 = load i64, ptr %132, align 8, !tbaa !95
  %134 = icmp eq i64 %133, 259
  br i1 %134, label %135, label %153

135:                                              ; preds = %130
  %136 = load i32, ptr %7, align 4, !tbaa !26
  %137 = icmp ne i32 %136, 0
  br i1 %137, label %138, label %139

138:                                              ; preds = %135
  store i32 0, ptr %9, align 4, !tbaa !26
  br label %152

139:                                              ; preds = %135
  %140 = load ptr, ptr %5, align 8, !tbaa !75
  %141 = getelementptr inbounds nuw %struct.Exnode_s, ptr %140, i32 0, i32 4
  %142 = getelementptr inbounds nuw %struct.anon, ptr %141, i32 0, i32 0
  %143 = load i64, ptr %142, align 8, !tbaa !97
  %144 = call zeroext i1 @validTVT(i64 noundef %143)
  br i1 %144, label %145, label %146

145:                                              ; preds = %139
  store i32 0, ptr %9, align 4, !tbaa !26
  br label %151

146:                                              ; preds = %139
  %147 = load ptr, ptr %5, align 8, !tbaa !75
  %148 = getelementptr inbounds nuw %struct.Exnode_s, ptr %147, i32 0, i32 4
  %149 = getelementptr inbounds nuw %struct.anon, ptr %148, i32 0, i32 0
  %150 = load i64, ptr %149, align 8, !tbaa !97
  call void (ptr, ...) @exerror(ptr noundef @.str.12, i64 noundef %150)
  br label %151

151:                                              ; preds = %146, %145
  br label %152

152:                                              ; preds = %151, %138
  br label %187

153:                                              ; preds = %130, %127
  %154 = load ptr, ptr %5, align 8, !tbaa !75
  %155 = getelementptr inbounds nuw %struct.Exnode_s, ptr %154, i32 0, i32 0
  %156 = load i64, ptr %155, align 8, !tbaa !95
  %157 = load i64, ptr %6, align 8, !tbaa !34
  %158 = icmp eq i64 %156, %157
  br i1 %158, label %159, label %160

159:                                              ; preds = %153
  store i32 0, ptr %9, align 4, !tbaa !26
  br label %186

160:                                              ; preds = %153
  %161 = load ptr, ptr %5, align 8, !tbaa !75
  %162 = getelementptr inbounds nuw %struct.Exnode_s, ptr %161, i32 0, i32 0
  %163 = load i64, ptr %162, align 8, !tbaa !95
  %164 = icmp eq i64 %163, 263
  br i1 %164, label %165, label %185

165:                                              ; preds = %160
  call void @llvm.lifetime.start.p0(i64 8, ptr %11) #16
  %166 = load i64, ptr %6, align 8, !tbaa !34
  %167 = icmp eq i64 %166, 31
  br i1 %167, label %168, label %184

168:                                              ; preds = %165
  %169 = load i32, ptr %7, align 4, !tbaa !26
  %170 = icmp ne i32 %169, 0
  br i1 %170, label %171, label %172

171:                                              ; preds = %168
  store i32 0, ptr %9, align 4, !tbaa !26
  br label %183

172:                                              ; preds = %168
  store i32 0, ptr %9, align 4, !tbaa !26
  %173 = load ptr, ptr %5, align 8, !tbaa !75
  %174 = getelementptr inbounds nuw %struct.Exnode_s, ptr %173, i32 0, i32 4
  %175 = getelementptr inbounds nuw %struct.anon, ptr %174, i32 0, i32 0
  %176 = load ptr, ptr %175, align 8, !tbaa !97
  store ptr %176, ptr %11, align 8, !tbaa !7
  %177 = load ptr, ptr %11, align 8, !tbaa !7
  %178 = call i32 @strToTvtype(ptr noundef %177)
  %179 = sext i32 %178 to i64
  %180 = load ptr, ptr %5, align 8, !tbaa !75
  %181 = getelementptr inbounds nuw %struct.Exnode_s, ptr %180, i32 0, i32 4
  %182 = getelementptr inbounds nuw %struct.anon, ptr %181, i32 0, i32 0
  store i64 %179, ptr %182, align 8, !tbaa !97
  br label %183

183:                                              ; preds = %172, %171
  br label %184

184:                                              ; preds = %183, %165
  call void @llvm.lifetime.end.p0(i64 8, ptr %11) #16
  br label %185

185:                                              ; preds = %184, %160
  br label %186

186:                                              ; preds = %185, %159
  br label %187

187:                                              ; preds = %186, %152
  br label %188

188:                                              ; preds = %187, %126
  br label %189

189:                                              ; preds = %188, %104
  br label %190

190:                                              ; preds = %189, %48
  br label %191

191:                                              ; preds = %190, %44
  br label %192

192:                                              ; preds = %191, %28
  %193 = load i32, ptr %7, align 4, !tbaa !26
  %194 = icmp ne i32 %193, 0
  br i1 %194, label %202, label %195

195:                                              ; preds = %192
  %196 = load i32, ptr %9, align 4, !tbaa !26
  %197 = icmp eq i32 %196, 0
  br i1 %197, label %198, label %202

198:                                              ; preds = %195
  %199 = load i64, ptr %6, align 8, !tbaa !34
  %200 = load ptr, ptr %5, align 8, !tbaa !75
  %201 = getelementptr inbounds nuw %struct.Exnode_s, ptr %200, i32 0, i32 0
  store i64 %199, ptr %201, align 8, !tbaa !95
  br label %202

202:                                              ; preds = %198, %195, %192
  %203 = load i32, ptr %9, align 4, !tbaa !26
  store i32 %203, ptr %4, align 4
  store i32 1, ptr %10, align 4
  br label %204

204:                                              ; preds = %202, %19
  call void @llvm.lifetime.end.p0(i64 4, ptr %9) #16
  call void @llvm.lifetime.end.p0(i64 8, ptr %8) #16
  %205 = load i32, ptr %4, align 4
  ret i32 %205
}